CCS PCM C Compiler, Version 5.007, 61971               12-Jul-19 17:16

               Filename:   Y:\ccs c\ccs c projects\App44_dcMotor_with_l298n\dcMotor.lst

               ROM used:   79 words (1%)
                           Largest free fragment is 2048
               RAM used:   5 (1%) at main() level
                           5 (1%) worst case
               Stack used: 0 locations
               Stack size: 8

*
0000:  MOVLW  00
0001:  MOVWF  0A
0002:  GOTO   004
0003:  NOP
....................  
.................... #include <16f877.h> 
.................... //////// Standard Header file for the PIC16F877 device //////////////// 
.................... #device PIC16F877 
....................  
.................... #list 
....................  
....................  
.................... #fuses XT, NOWDT, NOPROTECT, NOBROWNOUT, NOLVP, NOPUT, NOWRT, NODEBUG, NOCPD 
....................  
.................... #use delay (clock = 4000000) 
....................  
.................... #define buton_ileri pin_a0 
.................... #define buton_geri  pin_a1 
.................... #define buton_stop  pin_a2 
.................... #define input1       pin_b0 
.................... #define input2        pin_b1 
.................... #define enable_a    pin_b2 
.................... #define enable_b    pin_b3 
....................  
.................... void main() 
0004:  BSF    03.5
0005:  BSF    1F.0
0006:  BSF    1F.1
0007:  BSF    1F.2
0008:  BCF    1F.3
0009:  BCF    03.7
000A:  MOVLW  1F
000B:  ANDWF  03,F
.................... { 
....................    setup_psp(PSP_DISABLED); 
000C:  BCF    09.4
....................    setup_timer_1(T1_DISABLED); 
000D:  BCF    03.5
000E:  CLRF   10
....................    setup_timer_2(T2_DISABLED, 0, 1); 
000F:  MOVLW  00
0010:  MOVWF  78
0011:  MOVWF  12
0012:  MOVLW  00
0013:  BSF    03.5
0014:  MOVWF  12
....................    setup_adc_ports(NO_ANALOGS); 
0015:  BSF    1F.0
0016:  BSF    1F.1
0017:  BSF    1F.2
0018:  BCF    1F.3
....................    setup_adc(ADC_OFF); 
0019:  BCF    03.5
001A:  BCF    1F.0
....................    setup_CCP1(CCP_OFF); 
001B:  MOVLW  F0
001C:  ANDWF  17,F
....................    setup_CCP2(CCP_OFF); 
001D:  ANDWF  1D,F
....................     
....................    output_high(enable_a); 
001E:  BSF    03.5
001F:  BCF    06.2
0020:  BCF    03.5
0021:  BSF    06.2
....................    output_low(enable_b); 
0022:  BSF    03.5
0023:  BCF    06.3
0024:  BCF    03.5
0025:  BCF    06.3
....................     
....................    while(true){ 
....................        
....................       if(input(buton_ileri)){ 
0026:  BSF    03.5
0027:  BSF    05.0
0028:  BCF    03.5
0029:  BTFSS  05.0
002A:  GOTO   033
....................          output_high(input1); 
002B:  BSF    03.5
002C:  BCF    06.0
002D:  BCF    03.5
002E:  BSF    06.0
....................          output_low(input2); 
002F:  BSF    03.5
0030:  BCF    06.1
0031:  BCF    03.5
0032:  BCF    06.1
....................       } 
....................        
....................       if(input(buton_geri)){ 
0033:  BSF    03.5
0034:  BSF    05.1
0035:  BCF    03.5
0036:  BTFSS  05.1
0037:  GOTO   040
....................          output_low(input1); 
0038:  BSF    03.5
0039:  BCF    06.0
003A:  BCF    03.5
003B:  BCF    06.0
....................          output_high(input2); 
003C:  BSF    03.5
003D:  BCF    06.1
003E:  BCF    03.5
003F:  BSF    06.1
....................       } 
....................        
....................       if(input(buton_stop)){ 
0040:  BSF    03.5
0041:  BSF    05.2
0042:  BCF    03.5
0043:  BTFSS  05.2
0044:  GOTO   04D
....................          output_low(input1); 
0045:  BSF    03.5
0046:  BCF    06.0
0047:  BCF    03.5
0048:  BCF    06.0
....................          output_low(input2); 
0049:  BSF    03.5
004A:  BCF    06.1
004B:  BCF    03.5
004C:  BCF    06.1
....................       } 
004D:  GOTO   026
....................        
....................       /*if(input(buton_stop)){ 
....................          output_high(input1); 
....................          output_high(input2); 
....................       }*/ 
....................    } 
....................     
.................... } 
....................  
004E:  SLEEP
....................     
....................  
....................  
....................  
....................  
....................  
....................  
....................  
....................  
....................  

Configuration Fuses:
   Word  1: 3F39   XT NOWDT NOPUT NOBROWNOUT NOLVP NOCPD NOWRT NODEBUG NOPROTECT
