CCS PCM C Compiler, Version 5.084d, 1               08-Jun-19 18:19
Compiler operating in Evaluation Mode
To obtain a fully enabled compiler visit www.ccsinfo.com/products

               Filename:   Y:\ccs c projects\App19_timer2_interrupt\timer2_int.lst

               ROM used:   108 words (1%)
                           Largest free fragment is 2048
               RAM used:   13 (4%) at main() level
                           13 (4%) worst case
               Stack used: 1 locations (0 in main + 1 for interrupts)
               Stack size: 8

*
0000:  MOVLW  00
0001:  MOVWF  0A
0002:  GOTO   038
0003:  NOP
0004:  MOVWF  7F
0005:  SWAPF  03,W
0006:  CLRF   03
0007:  MOVWF  21
0008:  MOVF   0A,W
0009:  MOVWF  20
000A:  CLRF   0A
000B:  MOVF   04,W
000C:  MOVWF  22
000D:  MOVF   77,W
000E:  MOVWF  23
000F:  MOVF   78,W
0010:  MOVWF  24
0011:  MOVF   79,W
0012:  MOVWF  25
0013:  MOVF   7A,W
0014:  MOVWF  26
0015:  BCF    03.7
0016:  BCF    03.5
0017:  MOVLW  8C
0018:  MOVWF  04
0019:  BTFSS  00.1
001A:  GOTO   01D
001B:  BTFSC  0C.1
001C:  GOTO   02E
001D:  MOVF   22,W
001E:  MOVWF  04
001F:  MOVF   23,W
0020:  MOVWF  77
0021:  MOVF   24,W
0022:  MOVWF  78
0023:  MOVF   25,W
0024:  MOVWF  79
0025:  MOVF   26,W
0026:  MOVWF  7A
0027:  MOVF   20,W
0028:  MOVWF  0A
0029:  SWAPF  21,W
002A:  MOVWF  03
002B:  SWAPF  7F,F
002C:  SWAPF  7F,W
002D:  RETFIE
002E:  BCF    0A.3
002F:  BCF    0A.4
0030:  GOTO   031
....................  
.................... #include <16f877.h> 
.................... //////////// Standard Header file for the PIC16F877 device //////////////// 
.................... /////////////////////////////////////////////////////////////////////////// 
.................... ////        (C) Copyright 1996, 2014 Custom Computer Services          //// 
.................... //// This source code may only be used by licensed users of the CCS C  //// 
.................... //// compiler.  This source code may only be distributed to other      //// 
.................... //// licensed users of the CCS C compiler.  No other use, reproduction //// 
.................... //// or distribution is permitted without written permission.          //// 
.................... //// Derivative programs created using this software in object code    //// 
.................... //// form are not restricted in any way.                               //// 
.................... /////////////////////////////////////////////////////////////////////////// 
.................... #device PIC16F877 
....................  
.................... #list 
....................  
....................  
.................... #fuses XT, NOWDT, NOPROTECT, NOBROWNOUT, NOLVP, NOPUT, NOWRT, NODEBUG, NOCPD 
....................  
.................... #use delay (clock = 4000000) 
....................  
.................... #use fast_io(a) 
.................... #use fast_io(b) 
....................  
.................... int kesme = 0; 
....................  
.................... #int_timer2 
.................... void timer2_interrupt() 
.................... { 
....................    //set_timer1(60); 
....................    kesme++; 
0031:  INCF   27,F
....................      
....................    output_high(pin_b0); 
0032:  BSF    06.0
....................    output_low(pin_b0); 
0033:  BCF    06.0
0034:  BCF    0C.1
0035:  BCF    0A.3
0036:  BCF    0A.4
0037:  GOTO   01D
.................... } 
....................  
.................... void main() 
0038:  MOVF   03,W
0039:  ANDLW  1F
003A:  MOVWF  03
003B:  CLRF   27
003C:  BSF    03.5
003D:  BSF    1F.0
003E:  BSF    1F.1
003F:  BSF    1F.2
0040:  BCF    1F.3
0041:  BCF    03.7
.................... { 
....................    setup_psp(PSP_DISABLED); 
0042:  BCF    09.4
....................    setup_timer_1(T1_DISABLED); 
0043:  BCF    03.5
0044:  CLRF   10
....................    setup_timer_2(T2_DISABLED, 0, 1); 
0045:  MOVLW  00
0046:  MOVWF  78
0047:  MOVWF  12
0048:  MOVLW  00
0049:  BSF    03.5
004A:  MOVWF  12
....................    setup_adc_ports(NO_ANALOGS); 
004B:  BSF    1F.0
004C:  BSF    1F.1
004D:  BSF    1F.2
004E:  BCF    1F.3
....................    setup_adc(ADC_OFF); 
004F:  BCF    03.5
0050:  BCF    1F.0
....................    setup_CCP1(CCP_OFF); 
0051:  MOVLW  F0
0052:  ANDWF  17,F
....................    setup_CCP2(CCP_OFF); 
0053:  ANDWF  1D,F
....................     
....................    set_tris_a(0x01); 
0054:  MOVLW  01
0055:  BSF    03.5
0056:  MOVWF  05
....................    set_tris_b(0x00); 
0057:  MOVLW  00
0058:  MOVWF  06
....................     
....................    output_b(0x00); 
0059:  BCF    03.5
005A:  CLRF   06
....................     
....................    setup_timer_2(T2_DIV_BY_16, 250, 16); 
005B:  MOVLW  78
005C:  MOVWF  78
005D:  IORLW  06
005E:  MOVWF  12
005F:  MOVLW  FA
0060:  BSF    03.5
0061:  MOVWF  12
....................     
....................    //set_timer2(5); 
....................     
....................    enable_interrupts(int_timer2); 
0062:  BSF    0C.1
....................    enable_interrupts(GLOBAL); 
0063:  MOVLW  C0
0064:  BCF    03.5
0065:  IORWF  0B,F
....................     
....................    while(true){ 
....................       if(input(pin_a0)) 
0066:  BTFSS  05.0
0067:  GOTO   06A
....................          output_b(kesme); 
0068:  MOVF   27,W
0069:  MOVWF  06
006A:  GOTO   066
....................    } 
....................     
.................... } 
....................  
006B:  SLEEP
....................  
....................  
....................  
....................  
....................  
....................  
....................  
....................  
....................  
....................  

Configuration Fuses:
   Word  1: 3F39   XT NOWDT NOPUT NOBROWNOUT NOLVP NOCPD NOWRT NODEBUG NOPROTECT
